(dp0
S'VB4'
p1
(dp2
S'AVBR'
p3
I1
sS'MVR11'
p4
I5
sS'MVR14'
p5
I5
sS'DD3'
p6
I16
sS'DD2'
p7
I6
sS'MVL11'
p8
I5
sS'MVL14'
p9
I5
sS'VB5'
p10
I1
sS'DB1'
p11
I1
sS'DB4'
p12
I1
sS'AVBL'
p13
I1
ssS'ADLL'
p14
(dp15
S'ASHL'
p16
I2
sS'AIBR'
p17
I1
sS'AVDR'
p18
I5
sS'ASER'
p19
I3
sS'RMGL'
p20
I1
sS'AVAR'
p21
I3
sS'AWBL'
p22
I2
sS'ALA'
p23
I2
sS'AVAL'
p24
I2
sS'AIAL'
p25
I6
sS'AVJR'
p26
I3
sS'AVJL'
p27
I1
sS'OLQVL'
p28
I2
sS'AVDL'
p29
I1
sS'RIPL'
p30
I1
sS'AIBL'
p31
I7
sS'ADLR'
p32
I1
sg13
I2
ssS'HSNL'
p33
(dp34
g16
I1
sS'SABVL'
p35
I2
sS'AVFL'
p36
I6
sS'AIZL'
p37
I2
sg18
I2
sS'AWBR'
p38
I2
sS'RIML'
p39
I2
sg22
I1
sS'MVULVA'
p40
I7
sg25
I1
sg27
I1
sS'ASJR'
p41
I1
sS'ASKL'
p42
I1
sS'AIZR'
p43
I1
sS'HSNR'
p44
I4
sS'RIFL'
p45
I3
sS'ASHR'
p46
I2
sS'VC5'
p47
I3
ssS'SIBDR'
p48
(dp49
S'AIML'
p50
I1
sS'RIBR'
p51
I1
sS'SIBVR'
p52
I1
ssS'CEPVR'
p53
(dp54
S'URAVR'
p55
I1
sS'RMDDR'
p56
I2
sS'AVEL'
p57
I5
sS'MVR04'
p58
I1
sS'IL1VR'
p59
I1
sS'RICR'
p60
I2
sS'IL2VR'
p61
I2
sS'RIPR'
p62
I1
sS'RICL'
p63
I2
sS'ASGR'
p64
I1
sS'RIH'
p65
I1
sS'OLQVR'
p66
I4
sS'SIAVR'
p67
I2
sS'OLLR'
p68
I7
sS'RIVL'
p69
I1
sS'RMHR'
p70
I2
ssS'Ventral-cord-interneuron|few-synapses'
p71
(dp72
S'AVG'
p73
I1
ssS'I4'
p74
(dp75
S'I5'
p76
I2
sS'I2R'
p77
I5
sS'I2L'
p78
I5
sS'M1'
p79
I2
ssS'VA8'
p80
(dp81
g3
I1
sS'MVR16'
p82
I6
sS'AS6'
p83
I1
sS'VD7'
p84
I5
sS'VD8'
p85
I6
sg21
I4
sS'VA8'
p86
I1
sS'DD4'
p87
I21
sg24
I10
sS'VA9'
p88
I1
sS'MVL15'
p89
I6
sS'VB6'
p90
I1
sS'MVR15'
p91
I6
sS'MVL16'
p92
I6
sS'VB9'
p93
I3
sS'VB8'
p94
I4
sS'PDER'
p95
I1
sS'PVCR'
p96
I2
ssS'AIYR'
p97
(dp98
S'AWAR'
p99
I1
sS'RIAR'
p100
I6
sS'HSNL'
p101
I1
sS'RIMR'
p102
I1
sg51
I2
sS'ADFR'
p103
I1
sg43
I8
sS'AIYL'
p104
I1
ssS'M2R'
p105
(dp106
S'I3'
p107
I3
sS'MI'
p108
I3
sS'M3R'
p109
I1
sS'I1R'
p110
I3
sS'M5'
p111
I1
sS'I1L'
p112
I3
sS'M3L'
p113
I1
ssS'CEPVL'
p114
(dp115
S'ADLL'
p116
I1
sS'OLLL'
p117
I4
sS'SIAVL'
p118
I1
sS'MVL03'
p119
I1
sg28
I7
sg60
I4
sg30
I1
sS'RMDDL'
p120
I4
sg63
I7
sS'RMHL'
p121
I1
sg65
I1
sS'IL1VL'
p122
I2
sS'AVER'
p123
I3
sS'URAVL'
p124
I2
ssS'DB1'
p125
(dp126
S'AS3'
p127
I1
sS'AS2'
p128
I1
sg17
I1
sS'VD2'
p129
I15
sS'VD1'
p130
I21
sg3
I3
sS'DD1'
p131
I10
sS'DVA'
p132
I1
sS'AS1'
p133
I1
sS'RIS'
p134
I1
sS'VB3'
p135
I1
sS'MDR07'
p136
I1
sS'MDL08'
p137
I1
sS'MDL07'
p138
I1
sS'VB4'
p139
I1
sS'VD3'
p140
I1
sS'RID'
p141
I1
sS'DB2'
p142
I1
sg12
I1
sS'MDR08'
p143
I1
ssS'OLLR'
p144
(dp145
S'SMDVL'
p146
I4
sg117
I2
sg57
I16
sS'CEPVR'
p147
I6
sS'RMER'
p148
I2
sg51
I10
sS'RMDVR'
p149
I3
sS'SMDVR'
p150
I3
sg56
I10
sS'IL2R'
p151
I1
sS'SMDDR'
p152
I1
sg59
I1
sS'RIGR'
p153
I1
sS'CEPDR'
p154
I1
sS'RMDL'
p155
I3
sS'IL1DR'
p156
I3
ssS'DB3'
p157
(dp158
g3
I1
sS'MDL14'
p159
I3
sS'VD5'
p160
I26
sS'VD4'
p161
I9
sS'AS5'
p162
I1
sS'AS4'
p163
I1
sg6
I10
sg7
I4
sS'VD6'
p164
I7
sS'MDL13'
p165
I4
sS'MDL12'
p166
I3
sS'MDL11'
p167
I3
sS'DA4'
p168
I1
sS'MDR14'
p169
I3
sS'MDR11'
p170
I3
sS'MDR13'
p171
I4
sS'MDR12'
p172
I3
sg142
I6
sg12
I1
sg13
I1
ssS'DB2'
p173
(dp174
g3
I1
sg140
I23
sg160
I1
sg161
I14
sS'MDL09'
p175
I3
sg7
I2
sg172
I3
sg166
I3
sg167
I3
sS'MDL10'
p176
I3
sS'VB1'
p177
I2
sg170
I3
sS'MDR10'
p178
I3
sS'DA3'
p179
I5
sg11
I1
sS'DB3'
p180
I6
sS'MDR09'
p181
I3
ssS'DB5'
p182
(dp183
g3
I1
sS'MDL18'
p184
I2
sS'MDL17'
p185
I2
sS'MDL15'
p186
I2
sg21
I2
sS'MDR15'
p187
I2
sS'MDR17'
p188
I2
sS'MDR18'
p189
I2
sg13
I1
ssS'ADLR'
p190
(dp191
g3
I2
sg17
I10
sg116
I1
sS'AWCR'
p192
I3
sg18
I2
sg19
I1
sS'AIAR'
p193
I10
sg21
I2
sS'PVCL'
p194
I1
sg60
I1
sg63
I1
sg26
I1
sg29
I5
sg68
I1
sg46
I3
sg13
I1
ssS'odorsensory'
p195
(dp196
S'AWAR'
p197
I1
sS'AWCR'
p198
I1
sS'AWBR'
p199
I1
sS'AWBL'
p200
I1
sS'AWCL'
p201
I1
sS'AWAL'
p202
I1
ssS'DB6'
p203
(dp204
g3
I1
sS'MDL20'
p205
I2
sS'MDL19'
p206
I2
sg185
I2
sS'MDR20'
p207
I2
sg188
I2
sg24
I3
sS'MDR19'
p208
I2
sg13
I2
ssS'VB7'
p209
(dp210
g3
I2
sg91
I5
sg87
I2
sS'VB2'
p211
I2
sg89
I5
sg13
I2
ssS'SMBVR'
p212
(dp213
S'MVR06'
p214
I1
sg58
I1
sS'AVKR'
p215
I1
sS'MVR07'
p216
I1
sS'MVR01'
p217
I1
sS'SAAVL'
p218
I3
sS'MVR03'
p219
I1
sS'AVKL'
p220
I1
sS'RMEV'
p221
I3
sS'MVR02'
p222
I1
sS'SAADR'
p223
I4
ssS'URAVR'
p224
(dp225
g58
I2
sg148
I2
sg217
I2
sg221
I2
sg219
I2
sg62
I3
sS'RMDVL'
p226
I1
sg222
I2
sS'IL1R'
p227
I1
ssS'NSMR'
p228
(dp229
g109
I1
sg77
I6
sg76
I2
sS'I4'
p230
I3
sg110
I2
sg112
I2
sg113
I1
sg78
I6
sS'I6'
p231
I2
sg107
I2
ssS'ASKR'
p232
(dp233
g99
I1
sS'RIFR'
p234
I1
sg147
I1
sg193
I11
sS'AIMR'
p235
I1
sS'RMGR'
p236
I1
sg42
I1
sg46
I1
sS'PVQR'
p237
I4
ssS'RMFR'
p238
(dp239
g215
I3
sg220
I3
sg155
I2
ssS'AWCR'
p240
(dp241
g17
I4
sS'AIYR'
p242
I9
sg193
I1
sg64
I1
sS'AWCL'
p243
I5
sS'ASEL'
p244
I1
sg104
I4
ssS'AVAR'
p245
(dp246
S'PDEL'
p247
I1
sg96
I8
sS'VA2'
p248
I2
sg180
I1
sg194
I7
sS'DB5'
p249
I3
sg95
I1
sS'VA12'
p250
I1
sS'DB6'
p251
I5
sS'VA11'
p252
I15
sg86
I16
sg102
I1
sS'ADER'
p253
I1
sS'VA10'
p254
I5
sS'URYVL'
p255
I1
sS'SABVR'
p256
I1
sg35
I6
sg24
I6
sg88
I6
sS'AS11'
p257
I6
sS'AS10'
p258
I2
sg123
I2
sS'VA3'
p259
I7
sS'VA6'
p260
I5
sS'VA7'
p261
I4
sS'SABD'
p262
I1
sS'VA5'
p263
I4
sg127
I2
sg128
I2
sg133
I3
sS'AS7'
p264
I8
sg83
I3
sg162
I2
sg163
I1
sS'AS9'
p265
I6
sS'AS8'
p266
I9
sS'URYDR'
p267
I1
sg168
I8
sS'DA5'
p268
I7
sS'DA6'
p269
I13
sS'DA7'
p270
I3
sS'DA1'
p271
I8
sS'DA2'
p272
I4
sg179
I5
sg39
I2
sS'DA8'
p273
I9
sS'DA9'
p274
I2
sS'VD13'
p275
I2
sS'LUAR'
p276
I3
sg57
I2
sS'RIGL'
p277
I1
sg18
I2
sS'VA4'
p278
I5
sg29
I1
sg93
I4
sS'LUAL'
p279
I1
sg13
I1
ssS'RIS'
p280
(dp281
g17
I-1
sS'RMDR'
p282
I-4
sg215
I-4
sg155
I-2
sg150
I-1
sg39
I-2
sg146
I-1
sg220
I-1
sS'CEPVL'
p283
I-2
sg11
I-1
sg68
I-1
sg57
I-7
sg51
I-5
sS'URYVR'
p284
I-1
sS'RIBL'
p285
I-3
sg147
I-1
sg123
I-7
sg102
I-5
sg27
I-1
sg120
I-1
sg154
I-1
sS'SMDDL'
p286
I-1
sS'AVL'
p287
I-2
sg152
I-3
ssS'PDB'
p288
(dp289
g141
I2
sS'MVR21'
p290
I1
sg275
I2
sg257
I2
sS'MVL22'
p291
I1
ssS'RMDDR'
p292
(dp293
S'MDL03'
p294
I2
sS'MDL01'
p295
I1
sg223
I1
sg66
I1
sg149
I1
sS'MDR04'
p296
I1
sg222
I1
sg217
I1
sg226
I12
sS'URYDL'
p297
I1
sg152
I1
sS'MDL04'
p298
I1
sS'MDL02'
p299
I1
ssS'RICR'
p300
(dp301
g150
I1
sg146
I2
sS'ADAR'
p302
I1
sg21
I5
sS'SMBDR'
p303
I1
sg286
I4
sg24
I5
sg152
I3
sg220
I1
sg46
I2
ssS'AVAL'
p304
(dp305
S'FLPL'
p306
I1
sg27
I2
sg96
I11
sg194
I12
sg249
I2
sg252
I7
sg250
I2
sg251
I4
sg102
I3
sg88
I8
sg254
I6
sg21
I7
sS'PVPL'
p307
I1
sg256
I1
sg86
I19
sg284
I1
sg257
I4
sg258
I3
sg248
I5
sg259
I3
sS'VA1'
p308
I3
sg260
I10
sg261
I2
sg262
I4
sg263
I8
sg127
I3
sg128
I1
sg133
I3
sg264
I14
sg83
I1
sg162
I4
sg163
I1
sg265
I12
sg266
I9
sg168
I10
sg268
I8
sg269
I21
sg270
I4
sg271
I4
sg272
I4
sg179
I6
sg273
I4
sg274
I3
sg3
I1
sS'SDQR'
p309
I1
sS'AVHL'
p310
I1
sg297
I1
sg278
I3
sg29
I1
sg93
I5
sg279
I2
ssS'VA9'
p311
(dp312
g3
I1
sg94
I7
sg96
I1
sg84
I1
sS'VD9'
p313
I10
sS'MVR18'
p314
I5
sS'DVC'
p315
I1
sS'DVB'
p316
I1
sg24
I1
sg91
I5
sg89
I5
sS'DD5'
p317
I15
sS'MVL18'
p318
I5
sg93
I4
sg87
I3
sS'PVT'
p319
I1
ssS'AWCL'
p320
(dp321
g17
I1
sg192
I1
sS'RIAL'
p322
I3
sg193
I4
sg24
I1
sg25
I2
sg244
I1
sg31
I1
sg104
I10
ssS'AS11'
p323
(dp324
S'MDL22'
p325
I1
sS'MDL23'
p326
I1
sS'MDL21'
p327
I1
sS'MDL24'
p328
I1
sS'MDR22'
p329
I1
sS'MDR21'
p330
I1
sS'PDA'
p331
I1
sS'MDR24'
p332
I1
sS'PDB'
p333
I3
sg275
I2
sS'MDR23'
p334
I1
ssS'AS10'
p335
(dp336
g205
I2
sg206
I3
sg207
I2
sg21
I1
sg24
I1
sg208
I3
ssS'VA2'
p337
(dp338
g130
I3
sg129
I11
sg131
I13
sg216
I5
sg177
I2
sS'MVL10'
p339
I5
sg24
I5
sS'MVR10'
p340
I5
sS'MVL07'
p341
I5
sg259
I2
sg262
I3
ssS'ASKL'
p342
(dp343
S'PVQL'
p344
I5
sS'ASKR'
p345
I1
sg20
I1
sg50
I2
sg25
I11
sg31
I2
ssS'NSML'
p346
(dp347
g109
I1
sg77
I6
sg76
I2
sg230
I3
sg110
I2
sg112
I1
sg113
I1
sg78
I6
sg231
I2
sg107
I2
ssS'SIBDL'
p348
(dp349
S'SIBVL'
p350
I1
sg285
I1
ssS'VA6'
p351
(dp352
S'MVR13'
p353
I5
sg160
I1
sg164
I2
sg6
I24
sg5
I5
sg21
I2
sS'MVL13'
p354
I5
sg24
I6
sg9
I5
sg10
I2
ssS'VA7'
p355
(dp356
g353
I4
sg40
I4
sg84
I9
sg162
I1
sg6
I3
sg21
I4
sg354
I4
sg87
I12
sg135
I1
sg24
I2
sg91
I4
sg89
I4
sg92
I4
sg82
I4
ssS'VA4'
p357
(dp358
g128
I2
sg4
I6
sg161
I3
sS'MVR12'
p359
I6
sg7
I21
sg21
I3
sg8
I6
sg135
I2
sg268
I1
sg24
I1
sS'MVL12'
p360
I6
sg29
I1
sg262
I1
ssS'VA5'
p361
(dp362
g127
I2
sg4
I5
sg160
I2
sg5
I5
sg6
I13
sg7
I5
sg21
I3
sg8
I5
sg268
I2
sg24
I5
sg9
I5
ssS'CEPDL'
p363
(dp364
S'IL1DL'
p365
I4
sg297
I2
sg303
I1
sg117
I2
sS'URBL'
p366
I4
sg20
I4
sS'URADL'
p367
I2
sg60
I2
sg134
I1
sg226
I3
sg30
I2
sg63
I1
sS'SIADR'
p368
I1
sg285
I2
sg65
I1
sg123
I5
sg70
I4
sS'OLQDL'
p369
I7
ssS'URYVL'
p370
(dp371
g3
I1
sg277
I1
sg149
I2
sg52
I1
sg21
I1
sg134
I1
sg150
I4
sg120
I4
sg285
I2
sg65
I1
sg122
I1
sg123
I5
sg322
I1
ssS'PVQL'
p372
(dp373
g101
I2
sS'ASJL'
p374
I1
sg20
I1
sS'ADAL'
p375
I1
sg25
I3
sg42
I9
sg237
I2
ssS'FLPR'
p376
(dp377
g3
I1
sg17
I1
sg57
I4
sg253
I1
sg18
I2
sg26
I1
sg21
I5
sg177
I1
sg24
I12
sg306
I4
sg132
I1
sg123
I2
sg29
I11
sg194
I2
sg13
I5
ssS'AVJR'
p378
(dp379
g3
I1
sg96
I4
sg18
I3
sg237
I1
sg21
I1
sg35
I1
sg24
I1
sg27
I5
sg123
I3
sg29
I1
sg194
I3
sg13
I3
ssS'URYDR'
p380
(dp381
g57
I2
sg21
I1
sg51
I1
sg120
I3
sg286
I4
sg153
I1
sg123
I2
sg149
I5
ssS'IL2VR'
p382
(dp383
g100
I2
sg59
I6
sg148
I2
sS'URXR'
p384
I1
sg221
I3
sg62
I15
sS'RMEL'
p385
I3
sg65
I3
sg66
I1
sg55
I4
ssS'IL2VL'
p386
(dp387
S'BAGR'
p388
I1
sg124
I3
sg28
I1
sg148
I4
sS'IL2L'
p389
I1
sg221
I1
sg30
I11
sg385
I1
sg65
I2
sg122
I7
sg322
I1
ssS'mechanosensory|inter-labial-neuron'
p390
(dp391
S'IL1DL'
p392
I1
sS'IL1R'
p393
I1
sS'IL1L'
p394
I1
sS'IL1DR'
p395
I1
ssS'URYDL'
p396
(dp397
g277
I1
sg56
I4
sg226
I6
sg286
I1
sg24
I1
sg152
I1
sg285
I1
sg123
I2
ssS'chemosensory'
p398
(dp399
S'ASKR'
p400
I1
sS'PHBR'
p401
I1
sS'ASER'
p402
I1
sS'PHAR'
p403
I1
sS'PHAL'
p404
I1
sS'PHBL'
p405
I1
sS'ASEL'
p406
I1
sS'ASKL'
p407
I1
ssS'FLPL'
p408
(dp409
g3
I5
sg17
I2
sg253
I2
sg18
I13
sS'FLPR'
p410
I3
sg132
I1
sg21
I17
sg24
I15
sg65
I1
sS'ADEL'
p411
I2
sg29
I7
sg31
I1
sg13
I4
ssS'AVJL'
p412
(dp413
g3
I4
sS'PVNR'
p414
I1
sg194
I2
sg96
I5
sg57
I1
sg18
I2
sg26
I4
sg234
I1
sg21
I1
sg310
I2
sS'PLMR'
p415
I2
sg24
I2
sg134
I2
sg29
I1
sg44
I1
sS'AVFR'
p416
I1
sg13
I1
ssS'URBR'
p417
(dp418
g3
I1
sg384
I6
sS'OLQDR'
p419
I1
sg282
I1
sg302
I1
sg155
I1
sg60
I1
sS'RMFL'
p420
I1
sg151
I1
sg66
I1
sg67
I2
sS'SMBDL'
p421
I1
sg227
I3
sg154
I1
ssS'RMDR'
p422
(dp423
g100
I7
sS'MVL05'
p424
I1
sg102
I2
sg294
I1
sg149
I1
sg134
I1
sS'MDL05'
p425
I1
sg119
I1
sS'MDR05'
p426
I1
sg220
I1
sg155
I1
sg120
I1
sg322
I3
ssS'CEPDR'
p427
(dp428
g419
I7
sg121
I4
sg303
I1
sg57
I6
sg149
I2
sg227
I1
sg51
I1
sg60
I3
sg134
I1
sS'SIADL'
p429
I1
sS'BDUR'
p430
I1
sg63
I4
sg236
I1
sS'URADR'
p431
I1
sg65
I1
sg120
I1
sS'URBR'
p432
I2
sg68
I8
sg70
I1
sg267
I1
sg156
I5
ssS'AVBR'
p433
(dp434
g132
I1
sg11
I3
sg180
I1
sg44
I1
sg249
I1
sg12
I1
sS'DB7'
p435
I1
sg251
I1
sg142
I1
sS'VB11'
p436
I1
sS'VB10'
p437
I1
sg131
I1
sg51
I1
sg21
I7
sg86
I1
sg24
I6
sg88
I2
sg285
I1
sg258
I1
sg141
I2
sg278
I1
sg127
I1
sg133
I1
sg264
I3
sg83
I2
sg162
I1
sg163
I1
sg268
I1
sS'VD10'
p438
I1
sg140
I1
sg350
I1
sg135
I1
sg211
I1
sS'VB7'
p439
I2
sg90
I2
sg139
I1
sg93
I6
sg94
I3
sS'PVNL'
p440
I2
sg13
I4
ssS'PDA'
p441
(dp442
g414
I1
sg327
I2
sS'DD6'
p443
I1
sg257
I1
sg274
I2
sg275
I3
ssS'ASJL'
p444
(dp445
g41
I1
sg42
I4
sg44
I1
sg101
I1
sg344
I14
ssS'SABVL'
p446
(dp447
g21
I3
sg271
I2
sg272
I1
ssS'ALML'
p448
(dp449
S'CEPDL'
p450
I3
sS'PVR'
p451
I1
sg96
I1
sg57
I1
sS'BDUL'
p452
I6
sg20
I1
sg18
I1
sg56
I1
sS'AVM'
p453
I1
sg283
I2
sS'SDQL'
p454
I1
sg194
I2
ssS'PVQR'
p455
(dp456
g130
I1
sg99
I2
sg36
I1
sg319
I1
sg345
I8
sg19
I1
sg302
I1
sg193
I7
sg344
I2
sg234
I1
sg315
I1
sg287
I1
sg131
I1
sg44
I1
sg440
I1
sg416
I1
sg13
I1
ssS'AWBR'
p457
(dp458
g3
I2
sg100
I1
sS'RIR'
p459
I2
sg63
I1
sg103
I4
sg22
I1
sg64
I1
sg236
I1
sS'SMBVR'
p460
I1
sg43
I4
sg46
I2
sS'AUAR'
p461
I1
ssS'IL2L'
p462
(dp463
g57
I1
sg28
I8
sg148
I2
sg221
I2
sg63
I1
sS'IL1L'
p464
I1
sS'URXL'
p465
I2
sg65
I7
sg155
I3
sg411
I2
sg282
I1
sg20
I1
sg369
I5
ssS'chemosensory|odorsensory|nociceptive'
p466
(dp467
S'ADLL'
p468
I1
sS'ADLR'
p469
I1
ssS'AWBL'
p470
(dp471
S'AUAL'
p472
I1
sg17
I1
sg37
I9
sg20
I1
sg38
I1
sS'ADFL'
p473
I9
sg421
I1
sg322
I3
sg13
I1
ssS'IL2R'
p474
(dp475
g419
I2
sg432
I1
sg253
I1
sg59
I1
sg227
I1
sg155
I1
sg221
I1
sg385
I2
sg65
I6
sg66
I7
sg384
I1
sg236
I1
sg68
I1
ssS'ALMR'
p476
(dp477
g96
I3
sg147
I1
sg429
I1
sg430
I5
sg453
I1
sg120
I1
sg154
I1
ssS'ASJR'
p478
(dp479
g44
I1
sg237
I13
sg374
I1
sg345
I4
ssS'RMHR'
p480
(dp481
g295
I2
sg148
I1
sg294
I2
sg425
I2
sS'MVL01'
p482
I2
sg236
I1
sg20
I1
ssS'PQR'
p483
(dp484
g276
I1
sg18
I6
sg21
I11
sg307
I4
sg24
I8
sg29
I7
sS'AVG'
p485
I1
sg440
I1
ssS'ALNR'
p486
(dp487
g253
I1
sS'SAAVR'
p488
I2
sg421
I2
sg146
I1
sg152
I1
sg70
I1
ssS'DB4'
p489
(dp490
g3
I1
sg164
I13
sg6
I3
sS'MDL16'
p491
I2
sg159
I2
sg165
I2
sg211
I1
sS'MDR16'
p492
I2
sg171
I2
sg139
I1
sg11
I1
sg180
I1
sg169
I2
sg13
I1
ssS'PVDL'
p493
(dp494
g96
I6
sg21
I6
sg317
I1
sg24
I6
sg194
I1
sg438
I1
ssS'AVBL'
p495
(dp496
g132
I1
sg180
I1
sg249
I1
sg12
I1
sg435
I2
sg251
I2
sg57
I1
sS'AQR'
p497
I1
sg254
I1
sg51
I1
sg21
I7
sg24
I7
sS'VC3'
p498
I1
sg285
I1
sg258
I1
sg123
I2
sg141
I1
sg261
I1
sg127
I1
sg264
I2
sg83
I1
sg162
I1
sg163
I1
sg265
I1
sg248
I1
sg3
I4
sg414
I1
sg309
I1
sg436
I2
sg18
I2
sg350
I1
sg437
I2
sg287
I1
sg211
I4
sg177
I1
sg439
I2
sg90
I1
sg10
I1
sg139
I1
sg29
I1
sg93
I1
sg94
I7
ssS'VB5'
p499
(dp500
g353
I6
sg9
I6
sg164
I7
sg6
I27
sg5
I6
sg211
I1
sg354
I6
sg90
I1
sg139
I1
sg13
I1
ssS'PHCR'
p501
(dp502
g276
I1
sg96
I9
sS'PHCL'
p503
I2
sg132
I8
sS'AVHR'
p504
I1
sg274
I2
sg250
I2
ssS'ASER'
p505
(dp506
g99
I1
sg17
I10
sg242
I14
sS'AFDL'
p507
I1
sg193
I3
sg192
I1
sg25
I1
sS'AFDR'
p508
I2
sg31
I2
sg104
I2
sg243
I1
ssS'SAAVL'
p509
(dp510
S'ALNL'
p511
I1
sg102
I12
sg226
I1
sg24
I17
sS'RMFR'
p512
I2
sg152
I8
sg460
I3
sg39
I2
sg68
I1
sg31
I1
ssS'RMGL'
p513
(dp514
g17
I1
sg116
I1
sg282
I3
sS'SMBVL'
p515
I1
sg226
I3
sg465
I2
sg155
I1
sg511
I1
sg121
I3
sg57
I2
sg425
I2
sg24
I1
sg375
I1
sg424
I2
sg42
I1
sg141
I1
sg70
I1
sg450
I1
sg16
I2
sg3
I2
sg118
I1
sS'ALML'
p516
I1
sg350
I2
sg389
I1
sg22
I1
sg52
I1
ssS'SMDDL'
p517
(dp518
g137
I1
sS'MVL02'
p519
I1
sg100
I1
sg51
I1
sg298
I1
sg134
I1
sS'MDL06'
p520
I1
sg150
I2
sS'MDR06'
p521
I1
sg136
I1
sg296
I1
sg426
I1
sS'MDR02'
p522
I1
sg285
I1
sS'MVL04'
p523
I1
sg120
I1
sg322
I1
sS'MDR03'
p524
I1
ssS'M5'
p525
(dp526
g111
I4
sg76
I4
sS'M2R'
p527
I2
sg231
I1
sS'M2L'
p528
I2
sg79
I1
ssS'M4'
p529
(dp530
g111
I1
sS'NSMR'
p531
I1
sg107
I1
sg76
I13
sg527
I1
sg231
I3
sg528
I1
sS'M4'
p532
I6
sS'NSML'
p533
I1
ssS'RID'
p534
(dp535
g128
I-1
sg327
I-2
sg160
I-1
sg333
I-2
sg3
I-2
sg6
I-3
sg7
I-4
sg131
I-4
sg159
I-1
sg23
I-1
sg269
I-3
sg11
I-1
sg274
I-1
sg275
I-1
sg13
I-1
ssS'M1'
p536
(dp537
g77
I2
sg78
I2
sg107
I1
sg230
I1
ssS'URXL'
p538
(dp539
g16
I1
sg472
I5
sg277
I3
sg57
I4
sg26
I1
sg20
I3
sg63
I1
sg322
I8
sg13
I1
ssS'ASEL'
p540
(dp541
g17
I2
sg242
I6
sg192
I1
sg100
I1
sg103
I1
sg25
I3
sg31
I7
sg104
I13
sg243
I4
ssS'SIADR'
p542
(dp543
g51
I1
ssS'BDUR'
p544
(dp545
g414
I-1
sg194
I-1
sg253
I-1
sg310
I-1
sg24
I-3
sg431
I-1
sS'ALMR'
p546
I-1
sg27
I-2
sg454
I-1
sg44
I-4
sg440
I-2
ssS'SMBDL'
p547
(dp548
g521
I3
sg215
I1
sg21
I1
sg296
I2
sg488
I1
sg522
I2
sg220
I1
sg285
I1
sS'MDR01'
p549
I2
sS'SAADL'
p550
I1
sS'RMED'
p551
I3
sg524
I2
ssS'VA11'
p552
(dp553
g414
I2
sS'MVR20'
p554
I5
sg437
I1
sS'MVR19'
p555
I5
sg21
I7
sg443
I10
sS'MVL20'
p556
I5
sg24
I1
sS'MVL19'
p557
I5
sS'VD12'
p558
I4
ssS'VA12'
p559
(dp560
g96
I3
sg194
I2
sg252
I1
sg435
I4
sg436
I1
sg21
I1
sg443
I2
sg257
I2
sS'MVL21'
p561
I5
sg291
I5
sS'MVL23'
p562
I5
sg503
I1
sS'PHCR'
p563
I1
sg273
I3
sg274
I5
sg275
I11
sg558
I3
sS'MVR24'
p564
I5
sS'MVR22'
p565
I5
sS'MVR23'
p566
I5
sg290
I5
sg279
I2
ssS'ALNL'
p567
(dp568
g146
I1
sg303
I3
sg218
I3
ssS'Neuron|ciliated-ending-in-head|no-supporting-cells|associated-with-ILso'
p569
(dp570
S'BAGR'
p571
I1
sS'BAGL'
p572
I1
ssS'HSNR'
p573
(dp574
g17
I1
sg101
I2
sg31
I1
sg234
I4
sg256
I1
sS'VC2'
p575
I3
sg498
I1
sg260
I1
sg262
I1
sg37
I1
sg162
I1
sg268
I1
sg269
I1
sg40
I6
sg27
I1
sg43
I1
sg16
I2
sg414
I2
sg36
I1
sg161
I2
sg18
I1
sg430
I1
sg287
I1
sg22
I1
sg236
I1
sg237
I1
ssS'RIMR'
p576
(dp577
g242
I1
sg282
I1
sg420
I1
sg220
I1
sg155
I3
sg31
I5
sg57
I3
sg302
I1
sg51
I1
sg21
I1
sg134
I2
sg138
I1
sg24
I5
sg512
I1
sg341
I1
sg424
I1
sg123
I2
sg218
I3
sg488
I3
sg27
I1
sg425
I1
sg3
I5
sg286
I2
sg152
I4
sg13
I2
ssS'osmosensory|mechanosensory|odorsensory|nociceptive|gpg-nose'
p578
(dp579
S'ASHL'
p580
I1
sS'ASHR'
p581
I1
ssS'VB10'
p582
(dp583
g3
I1
sg558
I2
sg319
I1
sg554
I5
sg555
I5
sg443
I9
sg556
I5
sg220
I1
sg557
I5
sg194
I1
sS'VD11'
p584
I1
sg13
I2
ssS'DD3'
p585
(dp586
g7
I-2
sg159
I-5
sg165
I-6
sg167
I-5
sg87
I-1
sg169
I-5
sg170
I-5
sg171
I-6
ssS'DD2'
p587
(dp588
g175
I-4
sg140
I-1
sg161
I-3
sg6
I-2
sg131
I-1
sg172
I-4
sg166
I-4
sg167
I-5
sg170
I-5
sg179
I-1
sg181
I-4
ssS'ADAR'
p589
(dp590
g3
I5
sg17
I1
sg102
I5
sg57
I1
sS'RIVR'
p591
I1
sg63
I1
sg103
I1
sg62
I1
sg24
I1
sg146
I2
sg375
I1
sg27
I3
sg29
I2
sg237
I1
sg31
I1
sg46
I1
sg13
I1
ssS'PHAL'
p592
(dp593
g344
I2
sg36
I3
sg18
I1
sS'PHBR'
p594
I5
sg132
I2
sg310
I1
sS'PHAR'
p595
I7
sg504
I1
sS'PHBL'
p596
I5
sg485
I5
ssS'DD5'
p597
(dp598
g205
I-5
sg184
I-5
sg313
I-1
sg189
I-5
sg185
I-5
sg188
I-5
sg94
I-1
sg207
I-5
sg438
I-1
ssS'AIYL'
p599
(dp600
g242
I1
sg37
I13
sg192
I1
sg285
I4
sg243
I1
sg39
I1
sg44
I1
sg322
I7
sS'AWAL'
p601
I3
ssS'M2L'
p602
(dp603
g107
I3
sg108
I2
sg527
I1
sg110
I3
sg111
I1
sg112
I3
ssS'SMDDR'
p604
(dp605
g130
I1
sg137
I1
sg100
I1
sg56
I1
sg51
I1
sg298
I1
sg134
I1
sg520
I1
sg425
I1
sg521
I1
sg296
I1
sg222
I1
sg322
I2
ssS'ADAL'
p606
(dp607
g16
I1
sg3
I7
sg17
I2
sg57
I1
sg18
I2
sg410
I1
sg26
I5
sg302
I1
sg21
I2
sg150
I2
sg60
I1
sg344
I1
sg473
I1
sg63
I1
sg39
I3
sg29
I1
sg30
I1
sg31
I1
sg13
I4
ssS'DB7'
p608
(dp609
g325
I2
sg3
I1
sg327
I2
sg328
I2
sg206
I2
sg326
I2
sg329
I2
sg332
I2
sg334
I2
sg208
I2
sg330
I2
sg275
I2
sg13
I2
ssS'DD4'
p610
(dp611
g492
I-5
sg6
I-1
sg85
I-1
sg186
I-5
sg165
I-5
sg187
I-5
sg498
I-1
sg171
I-5
sg491
I-5
ssS'URXR'
p612
(dp613
g3
I2
sg100
I3
sg67
I1
sg62
I3
sg282
I1
sg153
I2
sg151
I1
sg236
I2
sg66
I1
sg123
I2
sg461
I4
sg13
I1
ssS'PLNR'
p614
(dp615
g223
I4
sg460
I6
ssS'PVDR'
p616
(dp617
g96
I10
sg21
I9
sS'PVDL'
p618
I1
sg132
I3
sg24
I6
sg88
I1
sg194
I13
ssS'RIH'
p619
(dp620
g147
I2
sg283
I2
sg30
I5
sg62
I3
sg66
I6
sg419
I3
sg51
I4
sg284
I1
sg285
I5
sg28
I1
sg461
I1
sg369
I2
sg450
I2
sg37
I4
sg148
I2
sg221
I1
sg306
I1
sg43
I4
sg154
I2
sg388
I1
sg100
I8
sg389
I2
sg103
I1
sg151
I1
sg322
I11
ssS'SABD'
p621
(dp622
g248
I4
sg259
I2
sg24
I4
sg278
I1
ssS'mechanosensory|gpg-nose'
p623
(dp624
S'OLQDR'
p625
I1
sS'FLPR'
p626
I1
sS'IL1VR'
p627
I1
sS'OLQVR'
p628
I1
sS'FLPL'
p629
I1
sS'IL1VL'
p630
I1
sS'OLQVL'
p631
I1
sS'OLQDL'
p632
I1
ssS'AUAL'
p633
(dp634
S'AINR'
p635
I1
sg57
I3
sg18
I1
sg24
I3
sg22
I1
sg285
I9
sg322
I5
sg461
I1
ssS'chemosensory|inter-labial-neuron'
p636
(dp637
S'IL2DL'
p638
I1
sS'IL2L'
p639
I1
sS'IL2VR'
p640
I1
sS'IL2VL'
p641
I1
sS'IL2R'
p642
I1
sS'IL2DR'
p643
I1
ssS'SABVR'
p644
(dp645
g24
I1
sg21
I1
sg271
I3
ssS'putative_mechanosensory'
p646
(dp647
S'CEPDL'
p648
I1
sS'OLLL'
p649
I1
sS'CEPVR'
p650
I1
sS'CEPVL'
p651
I1
sS'OLLR'
p652
I1
sS'CEPDR'
p653
I1
ssS'RMER'
p654
(dp655
g295
I-5
sg294
I-5
sg482
I-5
sg221
I-1
ssS'AIAR'
p656
(dp657
g99
I2
sg17
I14
sg234
I2
sg19
I1
sg302
I1
sg192
I3
sg103
I1
sg64
I1
sg25
I1
sS'ASIR'
p658
I2
sg43
I1
sg32
I2
sg243
I1
ssS'RMEV'
p659
(dp660
g365
I-1
sg57
I-1
sg148
I-1
sg298
I-1
sg520
I-1
sg296
I-1
sg152
I-1
sg385
I-1
sg123
I-1
sg522
I-1
sg551
I-2
sg299
I-1
sg156
I-1
ssS'mechanosensory'
p661
(dp662
S'ALNL'
p663
I1
sS'PDEL'
p664
I1
sS'ADER'
p665
I1
sS'ALML'
p666
I1
sS'PHCL'
p667
I1
sS'PLMR'
p668
I1
sS'AVM'
p669
I1
sS'PLML'
p670
I1
sS'ALMR'
p671
I1
sS'PHCR'
p672
I1
sS'ADEL'
p673
I1
sS'PVM'
p674
I1
sS'PDER'
p675
I1
sS'ALNR'
p676
I1
ssS'RMFL'
p677
(dp678
g319
I1
sg282
I3
sg215
I4
sg217
I1
sg219
I1
sg220
I4
sg524
I1
sg432
I1
sg153
I1
sg236
I1
ssS'RMEL'
p679
(dp680
g277
I-1
sg217
I-3
sg221
I-1
sg219
I-3
sg524
I-3
sg549
I-3
ssS'AIAL'
p681
(dp682
g16
I1
sg192
I1
sS'ASIL'
p683
I2
sg37
I1
sg101
I1
sg19
I3
sg20
I1
sg193
I1
sS'ASGL'
p684
I1
sg50
I2
sg375
I1
sg45
I1
sg42
I3
sg31
I10
sg601
I1
ssS'RIML'
p685
(dp686
g3
I3
sg17
I1
sg146
I1
sg57
I2
sS'MVR05'
p687
I2
sg282
I1
sg223
I1
sg21
I2
sg134
I1
sg218
I3
sg488
I2
sg24
I1
sg512
I1
sg152
I5
sg285
I1
sg155
I1
sg123
I3
sg426
I2
sg104
I1
sg13
I2
ssS'DD6'
p688
(dp689
g325
I-5
sg326
I-5
sg327
I-5
sg206
I-5
sg328
I-5
sg332
I-5
sg208
I-5
sg330
I-5
sg329
I-5
sg334
I-5
ssS'RMED'
p690
(dp691
g58
I-2
sg51
I-1
sg221
I-2
sg30
I-1
sg519
I-2
sg62
I-1
sS'MVL06'
p692
I-2
sg285
I-1
sg523
I-2
sg122
I-1
sg222
I-2
ssS'VB9'
p693
(dp694
g3
I6
sg94
I4
sS'MVR17'
p695
I6
sg554
I6
sg21
I4
sg86
I3
sg317
I8
sg316
I1
sg24
I5
sg88
I4
sS'MVL17'
p696
I6
sg556
I6
sg194
I2
sg438
I5
sg13
I1
ssS'AUAR'
p697
(dp698
g472
I1
sg100
I6
sg242
I1
sg38
I1
sg51
I13
sg21
I1
sg123
I4
sg384
I1
sS'AINL'
p699
I1
ssS'VD1'
p700
(dp701
g129
I-7
sS'MVR08'
p702
I-3
sg277
I-2
sg687
I-3
sg131
I-5
sg315
I-5
sS'VC1'
p703
I-1
sg152
I-1
sg424
I-3
sg248
I-1
sg45
I-1
sS'MVL08'
p704
I-3
sg308
I-2
ssS'VD3'
p705
(dp706
g359
I-5
sg129
I-2
sg161
I-1
sg307
I-1
sg211
I-2
sg360
I-6
sg259
I-2
sS'MVL09'
p707
I-5
sS'MVR09'
p708
I-5
ssS'VD2'
p709
(dp710
g130
I-7
sg133
I-1
sg340
I-5
sg339
I-5
sg131
I-3
sg216
I-5
sg140
I-2
sg211
I-3
sg341
I-5
sg248
I-9
ssS'VD5'
p711
(dp712
g161
I-1
sg164
I-2
sg5
I-13
sg21
I-1
sS'PVPR'
p713
I-1
sg9
I-13
sg139
I-2
sg263
I-2
ssS'VD4'
p714
(dp715
g8
I-6
sg140
I-1
sg160
I-1
sg359
I-6
sg7
I-2
sg4
I-6
sg713
I-1
sg360
I-6
ssS'AINR'
p716
(dp717
g388
I3
sg472
I1
sg19
I1
sg507
I4
sg508
I1
sg684
I1
sg285
I2
sg25
I2
sg244
I1
sg699
I2
sg141
I1
sg31
I2
sg461
I1
ssS'VD6'
p718
(dp719
g353
I-5
sg160
I-2
sg82
I-5
sg84
I-1
sg5
I-5
sg354
I-5
sg24
I-1
sg9
I-5
sg10
I-2
sg92
I-5
sg260
I-1
ssS'VD9'
p720
(dp721
g695
I-7
sg314
I-7
sg438
I-5
sg696
I-7
sg318
I-7
sg95
I-1
ssS'VD8'
p722
(dp723
g86
I-5
sg89
I-12
sg91
I-12
sg87
I-2
ssS'SAADR'
p724
(dp725
g102
I5
sg17
I1
sg117
I1
sg56
I1
sg20
I1
sg21
I3
sg420
I1
sg39
I4
ssS'RIFR'
p726
(dp727
g44
I1
sg3
I17
sg36
I1
sg96
I1
sg102
I4
sg26
I2
sg194
I1
sg310
I1
sg713
I4
sg62
I1
sg27
I1
sg485
I1
sg46
I2
sg13
I1
ssS'AVHL'
p728
(dp729
g130
I1
sg3
I1
sg36
I3
sg460
I2
sg102
I1
sg344
I1
sg594
I1
sg459
I3
sg38
I1
sg303
I1
sg103
I3
sg713
I2
sg504
I2
sg27
I3
sg29
I1
sg237
I2
sg416
I5
sg13
I1
ssS'ADFR'
p730
(dp731
g100
I16
sg242
I1
sg459
I3
sg302
I2
sg193
I1
sg38
I1
sg303
I1
sg713
I1
sg460
I2
sg384
I1
sg153
I3
sg43
I8
sg46
I1
sg461
I4
ssS'AVL'
p732
(dp733
g340
I-5
sg256
I-3
sg57
I-1
sS'PVWL'
p734
I-1
sg131
I-1
sg339
I-5
sg443
I-2
sg315
I-9
sg316
I-1
sg713
I-1
sg35
I-4
sg272
I-1
sg44
I-1
sS'PVM'
p735
I-1
sg416
I-1
sg262
I-5
sg558
I-4
ssS'ADFL'
p736
(dp737
g472
I5
sg37
I12
sg277
I1
sg28
I1
sg459
I2
sg515
I2
sg375
I2
sg322
I15
ssS'AVHR'
p738
(dp739
g3
I1
sg116
I1
sg277
I1
sg18
I1
sg26
I4
sg497
I2
sg459
I4
sg310
I2
sg307
I3
sg416
I2
sg515
I1
sg36
I5
sg421
I1
sg440
I1
sg32
I2
sg13
I2
ssS'SAADL'
p740
(dp741
g102
I6
sg24
I6
sg421
I1
sg236
I1
sg39
I3
sg31
I1
ssS'SIBVR'
p742
(dp743
S'SIBDR'
p744
I1
sg51
I1
sg121
I1
sg285
I1
ssS'AINL'
p745
(dp746
g51
I2
sg635
I2
sg508
I5
sg64
I2
sg285
I1
sg244
I3
sg411
I1
sS'BAGL'
p747
I3
sg461
I2
ssS'PVWR'
p748
(dp749
g319
I1
sg21
I1
sg96
I2
sg250
I1
sg18
I1
ssS'AVG'
p750
(dp751
g3
I2
sg414
I1
sg36
I1
sg713
I1
sg319
I1
sg57
I1
sg18
I1
sg237
I1
sg21
I3
sg234
I1
sg287
I1
sS'PHAL'
p752
I2
sg27
I1
sg123
I1
sg45
I1
sg194
I1
sg273
I1
sg252
I1
sg13
I1
ssS'PVNL'
p753
(dp754
g3
I3
sg414
I5
sg194
I1
sg707
I3
sg319
I1
sg57
I1
sg18
I3
sg26
I5
sg131
I2
sg734
I1
sS'PQR'
p755
I1
sg430
I2
sg287
I2
sg452
I1
sg24
I2
sg27
I5
sg29
I3
sg485
I1
sg45
I1
sg416
I1
sg237
I1
ssS'PLMR'
p756
(dp757
g276
I1
sg247
I2
sg83
I1
sg18
I4
sg132
I5
sg21
I1
sg194
I2
sg24
I4
sg451
I2
sg29
I1
sg44
I1
sg95
I3
sg96
I1
ssS'interneuron'
p758
(dp759
S'PLNR'
p760
I1
sS'PVR'
p761
I1
sS'PLNL'
p762
I1
ssS'IL1DL'
p763
(dp764
g451
I1
sg117
I1
sg56
I1
sg295
I1
sg299
I1
sg298
I2
sg221
I1
sg30
I2
sg226
I4
sg297
I1
sg464
I1
sg65
I1
sg156
I1
ssS'VA10'
p765
(dp766
g695
I5
sg314
I5
sg21
I1
sg24
I1
sg696
I5
sg318
I5
ssS'RIBR'
p767
(dp768
g744
I1
sg303
I1
sg146
I2
sg66
I1
sg31
I1
sg419
I2
sg319
I1
sg57
I3
sg51
I1
sg21
I2
sg368
I1
sg285
I3
sg65
I1
sg123
I1
sg153
I2
sg43
I1
sg3
I1
sg100
I2
sg286
I2
sg152
I1
sg52
I1
sg67
I1
sg747
I1
sg13
I1
ssS'OLLL'
p769
(dp770
g450
I3
sg297
I1
sg277
I1
sg365
I1
sg283
I4
sg286
I3
sg150
I4
sg120
I7
sg226
I1
sg152
I4
sg385
I2
sg285
I8
sg122
I2
sg123
I21
sg68
I2
sg155
I2
ssS'PHCL'
p771
(dp772
S'PLML'
p773
I1
sg132
I6
sg24
I1
sg250
I3
sg563
I1
sg194
I2
sg274
I8
sg279
I1
ssS'RIR'
p774
(dp775
g388
I2
sg472
I1
sg100
I1
sg37
I3
sg101
I1
sg277
I1
sg132
I2
sg384
I1
sg38
I1
sg307
I1
sg465
I5
sg508
I1
sg43
I5
sg322
I5
sg747
I1
ssS'IL1R'
p776
(dp777
g121
I1
sg57
I1
sg56
I2
sg59
I1
sg384
I2
sg149
I4
sg217
I3
sg219
I3
sg120
I3
sg226
I1
sg385
I2
sg524
I3
sg549
I3
sg155
I4
sg123
I1
sg282
I2
sg156
I2
ssS'ring-motor-neuron'
p778
(dp779
S'URAVR'
p780
I1
sS'URADL'
p781
I1
sS'URADR'
p782
I1
sS'URAVL'
p783
I1
ssS'DVA'
p784
(dp785
g247
I-3
sg96
I-1
sg459
I-3
sg303
I-2
sg421
I-3
sg11
I-1
sg180
I-2
sg142
I-1
sg249
I-1
sg12
I-1
sg435
I-1
sg251
I-2
sg194
I-4
sg57
I-9
sg497
I-4
sg21
I-1
sg24
I-3
sg250
I-1
sg123
I-5
sg262
I-1
sg472
I-1
sg37
I-3
sg102
I-1
sg218
I-1
sg488
I-1
sg248
I-1
sg451
I-5
sg461
I-1
sg3
I-1
sg100
I-1
sg436
I-2
sg223
I-1
sg515
I-3
sg177
I-1
sg460
I-2
sg322
I-1
sg13
I-2
ssS'SMBDR'
p786
(dp787
g511
I1
sg294
I1
sg215
I2
sg51
I1
sg298
I1
sg296
I1
sg218
I3
sg24
I1
sg220
I1
sg520
I2
sg551
I4
sg299
I1
sg143
I1
ssS'DVC'
p788
(dp789
g130
I-5
sg713
I-13
sg17
I-5
sg319
I-1
sg277
I-5
sg88
I-1
sg215
I-1
sg51
I-1
sg21
I-7
sg420
I-2
sg307
I-2
sg287
I-9
sg24
I-5
sg512
I-4
sg220
I-2
sg285
I-1
sg153
I-5
sg31
I-2
sg438
I-4
sg13
I-1
ssS'DVB'
p790
(dp791
g503
I-1
sg265
I-7
sg443
I-3
sg315
I-3
sg287
I-6
sg88
I-1
sg307
I-1
sS'MANAL'
p792
I-5
sg93
I-1
sg273
I-2
sg331
I-1
ssS'RMDDL'
p793
(dp794
g28
I1
sg155
I1
sg149
I7
sg286
I1
sg217
I1
sg226
I1
sg522
I1
sg524
I1
sg549
I1
sg296
I1
sg143
I2
ssS'SIADL'
p795
(dp796
g285
I1
ssS'PDEL'
p797
(dp798
g451
I2
sg96
I1
sg584
I1
sg132
I24
sg88
I1
sg220
I6
sg735
I3
sg95
I4
ssS'IL1L'
p799
(dp800
g365
I2
sg294
I3
sg119
I3
sg282
I3
sg148
I1
sg122
I1
sg149
I2
sg425
I4
sg120
I5
sg226
I4
sg482
I3
sg295
I3
sg155
I1
sg123
I2
ssS'RIVR'
p801
(dp802
g150
I-4
sg17
I-1
sg309
I-2
sg118
I-2
sg58
I-1
sg69
I-2
sg214
I-1
sg424
I-1
sg149
I-1
sg100
I-1
sg221
I-1
sg286
I-2
sg550
I-2
sg282
I-1
sg120
I-1
sg692
I-1
sg704
I-1
sg322
I-2
ssS'I1R'
p803
(dp804
g62
I1
sg112
I1
sg107
I1
sg76
I1
sg30
I1
ssS'IL1DR'
p805
(dp806
g365
I1
sg227
I1
sg149
I5
sg221
I1
sg62
I5
sg522
I3
sg549
I4
sg68
I1
ssS'OLQDR'
p807
(dp808
g149
I1
sg51
I2
sg60
I1
sg120
I3
sg63
I1
sg65
I1
sg52
I2
sg153
I1
sg432
I1
sg70
I1
sg154
I2
ssS'PVR'
p809
(dp810
g365
I1
sg247
I1
sg96
I1
sg27
I3
sg132
I3
sg30
I3
sg62
I3
sg220
I1
sg180
I1
sg142
I1
sg95
I1
sg156
I1
sg375
I1
sg26
I2
sg262
I1
sg367
I1
sg83
I1
sg59
I1
sg122
I1
sg274
I1
sg276
I1
sg3
I4
sg516
I1
sg415
I2
sg279
I1
sg13
I4
ssS'PVT'
p811
(dp812
g221
I1
sg17
I5
sg277
I2
sg215
I7
sg51
I1
sg420
I2
sg315
I2
sg303
I1
sg287
I2
sg512
I3
sg220
I9
sg307
I1
sg65
I1
sg153
I3
sg31
I3
sg285
I1
ssS'AVEL'
p813
(dp814
g133
I1
sg129
I1
sg96
I1
sg102
I3
sg35
I7
sg149
I1
sg21
I7
sg140
I1
sg221
I1
sg256
I3
sg168
I1
sg39
I2
sg24
I12
sg271
I5
sg272
I1
sg179
I3
sg123
I1
sg259
I3
sg308
I5
sg262
I6
sg319
I1
ssS'I1L'
p815
(dp816
g62
I1
sg107
I1
sg30
I1
sg76
I1
sg110
I1
ssS'IL2DL'
p817
(dp818
g472
I1
sg365
I7
sg148
I3
sg367
I3
sg30
I10
sg385
I4
sg285
I1
sg369
I2
ssS'ASGL'
p819
(dp820
g37
I1
sg31
I3
sg25
I9
sg635
I2
sg42
I1
ssS'AIMR'
p821
(dp822
g419
I1
sg414
I1
sg36
I1
sg101
I1
sg18
I1
sg345
I3
sg193
I5
sg234
I1
sg64
I2
sg236
I1
sg41
I2
sg44
I2
sg416
I1
ssS'AIML'
p823
(dp824
g3
I2
sg36
I4
sg18
I1
sg516
I1
sg515
I1
sg744
I1
sg27
I1
sg684
I2
sg310
I2
sg344
I1
sg504
I1
sg25
I5
sg29
I1
sg123
I1
sg42
I2
sg45
I1
sg416
I1
ssS'ASGR'
p825
(dp826
g699
I1
sg17
I2
sg193
I10
sg43
I1
sg242
I1
ssS'IL2DR'
p827
(dp828
g148
I2
sg60
I1
sg221
I1
sg62
I11
sg385
I2
sg431
I3
sg154
I1
sg551
I1
sg156
I7
ssS'OLQVL'
p829
(dp830
g116
I1
sg277
I1
sg366
I1
sg283
I1
sg149
I4
sg30
I1
sS'IL2VL'
p831
I1
sg63
I1
sg285
I1
sg65
I1
sg122
I1
sg120
I1
sS'SIBDL'
p832
I3
ssS'AVER'
p833
(dp834
g149
I1
sg226
I1
sg180
I1
sg57
I1
sg21
I16
sg256
I3
sg35
I3
sg24
I7
sg248
I1
sg259
I2
sg308
I1
sg262
I2
sg263
I1
sg127
I1
sg128
I2
sg133
I3
sg102
I2
sg221
I1
sg271
I5
sg272
I3
sg179
I1
sg39
I3
sg18
I1
sg278
I1
ssS'RIFL'
p835
(dp836
g130
I1
sg3
I1
sg516
I2
sg26
I2
sg307
I3
sg504
I1
sg39
I4
sg485
I1
sg13
I10
ssS'VB11'
p837
(dp838
g3
I1
sg564
I5
sg566
I5
sg565
I5
sg96
I1
sg290
I5
sg443
I7
sg561
I5
sg291
I5
sg562
I5
sg250
I2
sg13
I2
ssS'PVM'
p839
(dp840
g247
I8
sg132
I3
sg287
I1
sg453
I1
sg451
I1
sg220
I11
sg194
I2
sg95
I9
ssS'OLQDL'
p841
(dp842
g450
I1
sg277
I1
sg56
I4
sg366
I1
sg350
I3
sg60
I1
sg226
I1
sg285
I2
ssS'AS3'
p843
(dp844
g175
I3
sg140
I15
sg129
I1
sg131
I1
sg21
I1
sg176
I3
sg24
I2
sg178
I3
sg272
I1
sg179
I1
sg181
I3
sg263
I2
ssS'AS2'
p845
(dp846
g137
I2
sg129
I10
sg131
I1
sg138
I3
sg136
I3
sg143
I3
sg272
I1
sg11
I1
sg278
I2
ssS'AS1'
p847
(dp848
g130
I5
sg137
I3
sg129
I1
sg21
I2
sg425
I3
sg24
I3
sg426
I3
sg271
I2
sg259
I1
sg143
I4
ssS'URADL'
p849
(dp850
g365
I2
sg299
I2
sg294
I2
sg298
I2
sg30
I3
sg385
I1
ssS'AS7'
p851
(dp852
g3
I2
sg165
I2
sg21
I5
sg24
I6
sg492
I3
sg171
I2
sg491
I3
sg13
I2
ssS'AS6'
p853
(dp854
g3
I1
sg164
I13
sg169
I2
sg165
I3
sg159
I2
sg21
I1
sg86
I1
sg268
I2
sg24
I1
sg171
I3
ssS'AS5'
p855
(dp856
g160
I9
sg7
I1
sg159
I3
sg21
I1
sg167
I2
sg169
I3
sg24
I1
sg170
I2
sg261
I1
ssS'AS4'
p857
(dp858
g161
I11
sg162
I1
sg179
I1
sg166
I2
sg167
I2
sg170
I3
sg172
I2
ssS'AS9'
p859
(dp860
g205
I3
sg185
I2
sg21
I2
sg188
I2
sg316
I7
sg24
I4
sg207
I3
ssS'AS8'
p861
(dp862
g184
I3
sg186
I2
sg21
I3
sg187
I2
sg24
I4
sg189
I3
ssS'SMBVL'
p863
(dp864
g519
I1
sS'PLNL'
p865
I1
sg221
I5
sg488
I2
sg119
I1
sg482
I1
sg550
I3
sg523
I1
sg424
I1
sg692
I1
sg704
I1
ssS'PVNR'
p866
(dp867
g164
I1
sg194
I1
sg44
I2
sg319
I2
sg57
I3
sg6
I1
sg354
I2
sg24
I2
sg575
I1
sg498
I1
sg26
I1
sg27
I4
sg558
I1
sg3
I2
sg84
I1
sg18
I1
sg734
I2
sg430
I2
sg287
I2
sg452
I1
sg755
I2
sg360
I1
sg440
I1
sg13
I1
ssS'SMDVR'
p868
(dp869
g100
I5
sg216
I1
sg149
I1
sg286
I2
sg519
I1
sg119
I1
sg177
I1
sg146
I1
sg285
I2
sg523
I1
sg591
I3
sg120
I1
sg322
I7
ssS'PLML'
p870
(dp871
g503
I1
sg194
I1
sg101
I1
sg279
I1
ssS'LUAR'
p872
(dp873
g451
I2
sg96
I3
sg18
I3
sg26
I1
sg734
I1
sg21
I7
sg755
I1
sg24
I3
sg29
I1
sg415
I1
ssS'VA3'
p874
(dp875
g359
I5
sg133
I1
sg129
I3
sg708
I5
sg7
I11
sg131
I18
sg21
I2
sg140
I3
sg339
I5
sg24
I1
sg360
I5
sg278
I1
sg340
I5
sg707
I5
sg262
I2
ssS'VA1'
p876
(dp877
g130
I2
sg702
I3
sg131
I9
sg216
I3
sg24
I3
sg341
I3
sg272
I2
sg704
I3
ssS'URYVR'
p878
(dp879
g744
I1
sg100
I1
sg56
I6
sg57
I6
sg59
I1
sg51
I1
sg226
I4
sg24
I2
sg146
I3
sg350
I1
sg153
I1
ssS'RIPL'
p880
(dp881
g419
I1
sg551
I1
sg369
I1
ssS'VD11'
p882
(dp883
g554
I-6
sg437
I-1
sg555
I-6
sg21
I-2
sg556
I-6
sg557
I-6
sg252
I-1
ssS'VD10'
p884
(dp885
g3
I-1
sg695
I-6
sg554
I-6
sg313
I-5
sg315
I-4
sg317
I-2
sg696
I-6
sg556
I-6
sg93
I-2
ssS'VD13'
p886
(dp887
g564
I-6
sg562
I-6
sg565
I-6
sg96
I-1
sg290
I-6
sg21
I-2
sg307
I-2
sg561
I-6
sg291
I-6
sg194
I-1
sg250
I-1
sg566
I-6
ssS'VD12'
p888
(dp889
g565
I-3
sg436
I-1
sg437
I-1
sg555
I-3
sg557
I-3
sg561
I-3
sg252
I-3
sg250
I-2
ssS'BAGR'
p890
(dp891
g277
I6
sg57
I2
sg459
I1
sg24
I1
sg285
I4
sg322
I5
sg104
I1
sg747
I1
ssS'AVFL'
p892
(dp893
g3
I2
sg101
I1
sg344
I1
sg8
I1
sg26
I1
sg360
I1
sg237
I2
sg310
I4
sg95
I1
sg287
I1
sg177
I1
sg504
I7
sg27
I1
sg485
I1
sg440
I2
sg416
I30
sg13
I1
ssS'SDQR'
p894
(dp895
g3
I4
sg116
I1
sg350
I1
sg60
I1
sg591
I2
sg132
I3
sg24
I3
sg121
I2
sg69
I2
sg454
I1
sg31
I2
sg70
I1
sg13
I7
ssS'VD7'
p896
(dp897
g40
I-5
sg82
I-5
sg91
I-5
sg164
I-1
sg88
I-1
sg89
I-5
sg92
I-5
ssS'RIGL'
p898
(dp899
g17
I3
sg117
I1
sg28
I1
sg215
I2
sg315
I1
sg255
I1
sg220
I1
sg511
I1
sg57
I1
sg497
I2
sg459
I2
sg420
I1
sg285
I2
sg123
I1
sg70
I3
sg369
I1
sg130
I2
sg297
I1
sg385
I1
sg43
I1
sg388
I2
sg211
I1
sg153
I3
ssS'AFDL'
p900
(dp901
g31
I1
sg104
I7
sg635
I1
sg508
I1
ssS'I2R'
p902
(dp903
g112
I1
sg79
I3
sg110
I1
ssS'PVWL'
p904
(dp905
S'PVWR'
p906
I1
sg319
I2
sg96
I2
sg250
I1
sg27
I1
ssS'RMHL'
p907
(dp908
g282
I1
sg20
I3
sg52
I1
sg217
I2
sg524
I3
sg549
I2
ssS'IL1VL'
p909
(dp910
g59
I1
sg255
I1
sg30
I4
sg519
I4
sg482
I5
sg464
I2
sg120
I5
sg551
I1
ssS'ALA'
p911
(dp912
g57
I2
sg282
I1
sg123
I1
sg24
I1
sg411
I1
sg141
I1
ssS'VB3'
p913
(dp914
g3
I1
sg4
I6
sg359
I6
sg7
I37
sg5
I6
sg8
I6
sg211
I1
sg360
I6
sg9
I6
sg11
I1
sg261
I1
sg278
I1
ssS'BDUL'
p915
(dp916
g414
I-2
sg101
I-1
sg26
I-1
sg367
I-1
sg310
I-1
sg550
I-1
sg411
I-3
sg440
I-2
ssS'VB1'
p917
(dp918
g130
I3
sg17
I1
sg308
I3
sg702
I1
sg131
I1
sg216
I1
sg132
I1
sg420
I2
sg150
I1
sg211
I4
sg129
I1
sg220
I4
sg341
I1
sg259
I1
sg39
I2
sg550
I9
sg704
I1
sg142
I2
sg223
I2
sg262
I1
sg13
I1
ssS'SMDVL'
p919
(dp920
g100
I8
sg451
I1
sg56
I1
sg58
I1
sg69
I2
sg214
I1
sg51
I2
sg134
I1
sg222
I1
sg150
I1
sg119
I1
sg226
I1
sg152
I4
sg692
I1
sg219
I1
sg322
I3
ssS'I2L'
p921
(dp922
g112
I1
sg79
I3
sg110
I1
ssS'neuron|presynaptic-in-ring|ending-in-head'
p923
(dp924
S'URYDL'
p925
I1
sS'URBL'
p926
I1
sS'URYVL'
p927
I1
sS'URYDR'
p928
I1
sS'URYVR'
p929
I1
sS'URBR'
p930
I1
ssS'RICL'
p931
(dp932
g16
I2
sg152
I3
sg102
I3
sg38
I1
sg302
I1
sg21
I6
sg286
I3
sg150
I1
sg24
I5
sg512
I1
sg220
I1
sg591
I1
sg39
I1
sg421
I2
sg215
I2
ssS'AFDR'
p933
(dp934
g507
I1
sg17
I1
sg242
I13
sg19
I1
ssS'RIGR'
p935
(dp936
g419
I1
sg121
I4
sg277
I3
sg497
I1
sg215
I2
sg51
I2
sg459
I1
sg267
I1
sg284
I1
sg220
I4
sg66
I1
sg123
I2
sg68
I1
sg31
I3
sg747
I1
sS'ALNR'
p937
I1
ssS'SDQL'
p938
(dp939
g17
I1
sg309
I1
sg57
I1
sg516
I1
sg60
I1
sg21
I3
sg134
I3
sg420
I1
sg24
I1
sg306
I1
ssS'VB8'
p940
(dp941
g3
I3
sg695
I5
sg554
I5
sg313
I10
sg314
I5
sg317
I30
sg86
I3
sg88
I10
sg696
I5
sg556
I5
sg318
I5
sg93
I6
sg438
I1
sg13
I7
ssS'oxygen_sensor'
p942
(dp943
S'URXR'
p944
I1
sS'URXL'
p945
I1
sS'AQR'
p946
I1
ssS'AVFR'
p947
(dp948
g3
I5
sg36
I24
sg374
I1
sg344
I1
sg26
I1
sg5
I2
sg310
I4
sg504
I2
sS'VC4'
p949
I1
sg9
I2
sg27
I1
sg42
I1
sg44
I1
sg584
I1
sg13
I1
ssS'BAGL'
p950
(dp951
g388
I2
sg100
I5
sg277
I1
sg57
I1
sg459
I1
sg51
I7
sg21
I1
sg153
I5
sg285
I1
sg123
I4
sg31
I1
ssS'URADR'
p952
(dp953
g148
I1
sg149
I1
sg267
I1
sg62
I3
sg522
I2
sg524
I3
sg549
I3
sg551
I1
sg156
I1
ssS'AIBR'
p954
(dp955
g102
I1
sg3
I3
sg277
I3
sg319
I1
sg57
I1
sg591
I1
sg21
I1
sg134
I1
sg315
I2
sg286
I3
sg39
I17
sg177
I3
sg146
I1
sg550
I1
sg285
I4
sg508
I1
sg11
I1
sg322
I1
ssS'PVCR'
p956
(dp957
g247
I2
sg563
I1
sg180
I3
sg142
I1
sg249
I1
sg12
I4
sg435
I1
sg251
I2
sg194
I8
sg57
I1
sg497
I1
sg21
I10
sg86
I2
sg24
I12
sg88
I1
sg123
I1
sg141
I5
sg128
I1
sg139
I3
sg437
I1
sg451
I1
sg306
I1
sg27
I3
sg906
I2
sg274
I1
sg276
I1
sg3
I6
sg18
I1
sg618
I1
sg734
I2
sg287
I1
sg439
I3
sg90
I2
sg52
I2
sg29
I5
sg94
I1
sg415
I1
sg13
I8
ssS'oxygen_sensor|putative_mechanosensory'
p958
(dp959
S'PQR'
p960
I1
ssS'AVKR'
p961
(dp962
g344
I1
sg303
I2
sg152
I2
sg102
I2
sg497
I1
sg282
I1
sg339
I1
sg420
I1
sg307
I6
sg153
I1
sg452
I1
sg63
I1
sg421
I2
sg220
I2
sg460
I1
sg411
I1
sg550
I1
sg39
I2
sg286
I1
ssS'OLQVR'
p963
(dp964
g744
I4
sg56
I1
sg147
I1
sg148
I1
sg51
I1
sg60
I1
sg62
I2
sg226
I4
sg65
I2
sg59
I1
sg153
I1
sg432
I1
ssS'RMDVR'
p965
(dp966
g744
I1
sg282
I1
sg150
I1
sg226
I1
sg419
I1
sg57
I1
sg295
I1
sg519
I1
sg119
I1
sg482
I1
sg692
I1
sg523
I1
sg424
I1
sg123
I1
sg704
I1
sg56
I1
sg488
I1
sg120
I4
sg702
I1
sg58
I1
sg214
I1
sg52
I1
ssS'M3R'
p967
(dp968
S'MCL'
p969
I1
sg531
I3
sg108
I1
sg107
I2
sg76
I3
sg230
I6
sg231
I1
sg112
I4
sg113
I1
sg79
I1
sg533
I2
sg110
I4
sS'MCR'
p970
I1
ssS'RIPR'
p971
(dp972
g419
I1
sg551
I1
sg369
I1
ssS'RMDVL'
p973
(dp974
g702
I1
sg56
I6
sg58
I1
sg687
I1
sg214
I1
sg549
I1
sg149
I1
sg217
I1
sg218
I1
sg219
I1
sg120
I1
sg146
I1
sg222
I1
sg523
I1
sg155
I1
sg123
I1
sg369
I1
ssS'AVKL'
p975
(dp976
g247
I3
sg215
I2
sg132
I1
sg303
I1
sg421
I1
sg95
I1
sg319
I2
sg253
I1
sg497
I2
sg177
I4
sg307
I1
sg713
I1
sg512
I1
sg123
I1
sg735
I1
sg102
I1
sg152
I1
sg39
I2
sg57
I2
sg277
I1
sg223
I1
sg437
I1
sg60
I1
sg453
I1
sg63
I1
sg460
I1
sg67
I1
sg13
I1
ssS'PHAR'
p977
(dp978
g344
I2
sg504
I1
sg594
I5
sg132
I1
sg307
I3
sg752
I8
sg596
I1
sg485
I3
sg273
I1
ssS'chemosensory|gpg-food'
p979
(dp980
S'ASIL'
p981
I1
sS'ASJL'
p982
I1
sS'ASGL'
p983
I1
sS'ADFR'
p984
I1
sS'ADFL'
p985
I1
sS'ASGR'
p986
I1
sS'ASJR'
p987
I1
sS'ASIR'
p988
I1
ssS'PVCL'
p989
(dp990
g96
I7
sg132
I5
sg180
I4
sg142
I3
sg249
I2
sg12
I3
sg435
I3
sg251
I2
sg57
I2
sg437
I3
sg21
I4
sg134
I2
sg24
I3
sg123
I1
sg141
I5
sg133
I1
sg26
I2
sg268
I1
sg269
I1
sg272
I1
sg27
I4
sg3
I12
sg773
I1
sg436
I1
sg18
I2
sg350
I2
sg135
I1
sg90
I2
sg10
I1
sg139
I1
sg29
I5
sg93
I2
sg94
I1
sg13
I5
ssS'AIBL'
p991
(dp992
g319
I1
sg102
I14
sg507
I1
sg223
I2
sg51
I4
sg315
I1
sg39
I2
sg24
I2
sg152
I4
sg550
I2
sg306
I1
sg19
I1
sg153
I4
sg45
I1
sg69
I1
sg104
I1
sg13
I5
ssS'URAVL'
p993
(dp994
g148
I1
sg221
I2
sg30
I3
sg519
I2
sg119
I3
sg482
I2
sg385
I1
sg523
I2
ssS'AWAR'
p995
(dp996
g242
I2
sg193
I1
sg234
I2
sg19
I2
sg244
I1
sg38
I1
sg103
I3
sg459
I2
sg508
I7
sg153
I1
sg43
I8
sg601
I1
sg461
I1
ssS'ASIL'
p997
(dp998
g37
I1
sg19
I1
sg192
I1
sg285
I1
sg104
I2
sg25
I2
sg42
I2
sg31
I1
sg658
I1
sg243
I1
ssS'ADER'
p999
(dp1000
g451
I1
sg65
I1
sg277
I7
sg18
I2
sg410
I1
sg26
I1
sg302
I1
sg21
I1
sg23
I1
sg488
I1
sg123
I1
sg24
I5
sg220
I2
sg306
I1
sg282
I2
sg411
I2
sg68
I2
sg215
I1
sg153
I4
sg154
I1
ssS'AQR'
p1001
(dp1002
g388
I2
sg3
I4
sg100
I1
sg96
I2
sg277
I2
sg18
I1
sg215
I1
sg21
I3
sg307
I8
sg713
I9
sg24
I1
sg220
I2
sg465
I1
sg27
I1
sg153
I1
sg29
I1
sg322
I3
sg747
I2
sg13
I4
ssS'SIBVL'
p1003
(dp1004
g3
I1
sg832
I1
sg309
I1
sg285
I1
sg13
I1
ssS'AVM'
p1005
(dp1006
g3
I6
sg451
I3
sg96
I5
sg253
I1
sg516
I1
sg26
I1
sg430
I2
sg452
I3
sg271
I1
sg546
I1
sg350
I1
sg308
I2
sg29
I2
sg141
I1
sg194
I4
sg440
I1
sg13
I6
ssS'I3'
p1007
(dp1008
g528
I2
sg79
I2
sg527
I2
ssS'URBL'
p1009
(dp1010
g450
I1
sg118
I1
sg56
I1
sg28
I1
sg60
I1
sg303
I1
sg464
I1
sg465
I2
sg13
I1
sg369
I1
ssS'I5'
p1011
(dp1012
g111
I2
sg112
I4
sg79
I1
sg108
I2
sg110
I3
ssS'thermosensory'
p1013
(dp1014
S'AFDL'
p1015
I1
sS'AFDR'
p1016
I1
ssS'PVPL'
p1017
(dp1018
g3
I6
sg140
I1
sg96
I3
sg755
I4
sg277
I2
sg497
I8
sg215
I6
sg18
I2
sg21
I1
sg595
I3
sg315
I2
sg713
I1
sg24
I2
sg504
I1
sg375
I1
sg319
I1
sg123
I1
sg220
I1
sg275
I2
sg13
I5
ssS'I6'
p1019
(dp1020
g531
I2
sg77
I2
sg111
I2
sg532
I1
sg78
I2
sg533
I2
sg107
I1
ssS'PVPR'
p1021
(dp1022
g96
I7
sg315
I14
sg220
I1
sg194
I4
sg497
I11
sg7
I1
sg21
I2
sg307
I1
sg24
I1
sg102
I1
sg3
I5
sg100
I2
sg160
I1
sg161
I1
sg310
I3
sg103
I1
sg287
I4
sg236
I1
sg153
I1
sg13
I4
sg46
I1
sg237
I1
ssS'VC1'
p1023
(dp1024
g130
I5
sg140
I1
sg129
I1
sg160
I5
sg161
I2
sg164
I1
sg6
I6
sg7
I6
sg131
I7
sg315
I1
sg287
I2
sg575
I9
sg498
I3
sg40
I6
sg319
I2
ssS'VC2'
p1025
(dp1026
g130
I2
sg129
I2
sg160
I5
sg96
I1
sg164
I1
sg6
I9
sg7
I4
sg131
I6
sg315
I1
sg703
I10
sg498
I6
sg319
I2
sg161
I5
sg40
I10
sg12
I1
sg237
I1
ssS'VC3'
p1027
(dp1028
g315
I1
sg44
I1
sg6
I5
sg7
I4
sg131
I2
sg87
I13
sg713
I1
sg703
I4
sg575
I3
sg949
I1
sg47
I2
sg140
I1
sg40
I11
sg130
I1
sg414
I1
sg129
I1
sg160
I4
sg161
I2
sg84
I5
sg164
I4
sg287
I1
sg237
I4
ssS'VC4'
p1029
(dp1030
g40
I7
sg504
I1
sg703
I1
sg498
I5
sg47
I2
sg416
I1
sg13
I1
ssS'VC5'
p1031
(dp1032
g36
I1
sg319
I1
sg366
I3
sg315
I2
sg498
I3
sg949
I2
sg40
I2
sg68
I1
sg416
I1
sg101
I1
ssS'VC6'
p1033
(dp1034
g40
I1
ssS'M3L'
p1035
(dp1036
g109
I1
sg531
I3
sg108
I1
sg76
I3
sg230
I2
sg231
I1
sg112
I4
sg969
I1
sg79
I1
sg533
I2
sg110
I4
sg970
I1
ssS'ADEL'
p1037
(dp1038
g744
I1
sg117
I1
sg69
I1
sg215
I1
sg155
I2
sg303
I1
sg425
I1
sg464
I1
sg591
I1
sg121
I1
sg253
I1
sg21
I3
sg368
I1
sg24
I2
sg375
I1
sg65
I2
sg45
I1
sg450
I1
sg366
I1
sg699
I1
sg306
I1
sg57
I1
sg277
I5
sg20
I1
sg389
I1
sg287
I1
sg452
I1
sg153
I3
sg322
I1
ssS'RMGR'
p1039
(dp1040
g3
I1
sg384
I2
sg426
I1
sg345
I1
sg38
I1
sg302
I1
sg155
I4
sg21
I1
sg235
I1
sg459
I1
sg151
I1
sg687
I1
sg27
I1
sg123
I3
sg29
I1
sg149
I5
sg216
I1
sg282
I2
sg70
I1
sg46
I2
sg937
I1
ssS'RIVL'
p1041
(dp1042
g100
I-1
sg309
I-2
sg31
I-1
sg223
I-3
sg591
I-2
sg152
I-1
sg146
I-1
sg155
I-2
sg67
I-2
sg702
I-2
sg322
I-1
sg214
I-1
sg687
I-1
ssS'PDER'
p1043
(dp1044
g247
I3
sg96
I1
sg313
I1
sg132
I35
sg86
I1
sg220
I16
sg194
I1
sg735
I1
ssS'ASIR'
p1045
(dp1046
g192
I1
sg17
I1
sg683
I1
sg193
I5
sg25
I1
sg244
I2
sg46
I1
sg243
I1
ssS'AWAL'
p1047
(dp1048
g99
I1
sg37
I10
sg507
I5
sg684
I1
sg22
I1
sg375
I1
sg25
I1
sg244
I4
sg104
I1
ssS'AIZL'
p1049
(dp1050
g16
I1
sg17
I8
sg277
I1
sg211
I1
sg322
I8
sg132
I1
sg684
I1
sg515
I7
sg39
I4
sg421
I9
sg25
I3
sg244
I1
sg123
I5
sg43
I2
sg31
I2
ssS'SIAVR'
p1051
(dp1052
g51
I1
ssS'VB6'
p1053
(dp1054
g3
I2
sg40
I6
sg91
I6
sg84
I8
sg164
I1
sg87
I30
sg168
I1
sg86
I1
sg439
I1
sg82
I6
sg10
I1
sg92
I6
sg89
I6
sg13
I1
ssS'IL1VR'
p1055
(dp1056
g56
I10
sg227
I2
sg217
I5
sg61
I1
sg62
I6
sg151
I1
sg222
I5
sg122
I1
sg148
I1
ssS'RIBL'
p1057
(dp1058
g17
I2
sg28
I1
sg150
I4
sg421
I1
sg832
I1
sg319
I1
sg57
I1
sg51
I3
sg429
I1
sg24
I1
sg285
I1
sg123
I5
sg369
I2
sg472
I1
sg388
I1
sg3
I2
sg118
I1
sg277
I1
sg18
I1
sg350
I1
sg286
I1
sg52
I1
sg322
I3
sg13
I1
ssS'DA4'
p1059
(dp1060
g160
I15
sg161
I12
sg7
I1
sg159
I5
sg21
I2
sg166
I4
sg167
I4
sg172
I4
sg169
I5
sg24
I3
sg170
I4
sg271
I1
sg179
I1
sg180
I2
sg90
I1
ssS'DA5'
p1061
(dp1062
g160
I1
sg83
I2
sg164
I16
sg165
I5
sg159
I4
sg21
I5
sg169
I4
sg24
I1
sg171
I5
sg12
I1
sg278
I1
sg263
I2
ssS'DA6'
p1063
(dp1064
g160
I3
sg161
I4
sg164
I3
sg165
I4
sg159
I4
sg21
I2
sg166
I4
sg167
I6
sg169
I4
sg24
I10
sg492
I4
sg170
I4
sg171
I4
sg491
I4
sg172
I4
ssS'DA7'
p1065
(dp1066
g184
I4
sg185
I4
sg186
I4
sg188
I4
sg187
I4
sg24
I2
sg189
I4
ssS'DA1'
p1067
(dp1068
g130
I17
sg137
I8
sg129
I1
sg131
I4
sg21
I6
sg256
I3
sg168
I1
sg35
I2
sg24
I2
sg143
I8
ssS'DA2'
p1069
(dp1070
g127
I1
sg128
I1
sg140
I5
sg129
I11
sg175
I2
sg136
I2
sg131
I1
sg21
I2
sg138
I2
sg35
I1
sg24
I2
sg137
I1
sg178
I2
sg176
I2
sg308
I2
sg130
I2
sg143
I2
sg181
I2
ssS'DA3'
p1071
(dp1072
g175
I5
sg140
I25
sg161
I6
sg163
I2
sg7
I1
sg21
I2
sg166
I5
sg176
I5
sg168
I2
sg178
I5
sg172
I5
sg180
I1
sg181
I5
ssS'AIZR'
p1073
(dp1074
g99
I1
sg17
I1
sg37
I2
sg102
I4
sg57
I4
sg193
I1
sg132
I1
sg100
I7
sg303
I5
sg64
I1
sg152
I1
sg460
I3
sg123
I1
sg31
I8
sg46
I1
ssS'DA8'
p1075
(dp1076
g205
I4
sg206
I4
sg185
I4
sg207
I4
sg21
I1
sg188
I4
sg208
I4
sg274
I1
ssS'DA9'
p1077
(dp1078
g325
I4
sg326
I4
sg327
I4
sg328
I4
sg206
I4
sg329
I4
sg503
I1
sg443
I1
sg332
I4
sg275
I1
sg208
I4
sg141
I1
sg273
I1
sg330
I4
sg331
I1
sg334
I4
ssS'VB2'
p1079
(dp1080
g12
I1
sg359
I4
sg340
I4
sg7
I1
sg131
I20
sg575
I1
sg341
I4
sg248
I1
sg707
I4
sg3
I1
sg140
I3
sg129
I9
sg708
I4
sg277
I1
sg216
I4
sg135
I1
sg339
I4
sg177
I4
sg360
I4
sg439
I2
sg10
I1
sg13
I3
ssS'ASHL'
p1081
(dp1082
g37
I1
sg18
I2
sg322
I4
sg20
I1
sg63
I2
sg30
I1
sg473
I3
sg24
I2
sg375
I2
sg25
I7
sg29
I2
sg39
I1
sg42
I1
sg31
I5
sg46
I1
sg13
I6
ssS'SAAVR'
p1083
(dp1084
g102
I2
sg21
I13
sg149
I1
sg515
I2
sg286
I6
sg39
I5
ssS'RIAR'
p1085
(dp1086
g150
I-7
sg282
I-8
sg118
I-1
sg56
I-11
sg147
I-1
sg227
I-1
sg155
I-3
sg149
I-10
sg368
I-1
sg286
I-7
sg226
I-12
sg152
I-7
sg146
I-13
sg69
I-1
sg120
I-10
sg322
I-4
sg223
I-1
sg429
I-1
ssS'MCL'
p1087
(dp1088
g77
I1
sg527
I2
sg110
I3
sg528
I2
sg112
I3
sg79
I1
sg78
I1
sg107
I1
ssS'PLNL'
p1089
(dp1090
g550
I5
sg515
I6
ssS'SIAVL'
p1091
(dp1092
g285
I1
ssS'AVDR'
p1093
(dp1094
g116
I1
sg27
I2
sg315
I1
sg12
I1
sg252
I1
sg21
I15
sg256
I1
sg35
I3
sg24
I16
sg375
I2
sg258
I1
sg248
I1
sg259
I2
sg260
I1
sg262
I1
sg162
I1
sg410
I1
sg168
I1
sg268
I2
sg271
I2
sg272
I1
sg179
I1
sg273
I1
sg274
I1
sg755
I1
sg29
I2
sg279
I2
sg13
I1
ssS'PHBR'
p1095
(dp1096
g36
I1
sg96
I3
sg18
I1
sg21
I7
sg310
I1
sg24
I7
sg596
I4
sg29
I1
sg194
I6
sg273
I1
sg250
I2
ssS'MCR'
p1097
(dp1098
g107
I1
sg527
I2
sg110
I3
sg528
I2
sg112
I3
sg79
I1
ssS'LUAL'
p1099
(dp1100
g773
I1
sg18
I2
sg734
I1
sg21
I6
sg24
I6
sg451
I1
sg596
I1
sg27
I1
sg29
I4
sg440
I1
ssS'PHBL'
p1101
(dp1102
g594
I4
sg21
I6
sg24
I9
sg29
I1
sg194
I13
sg250
I1
ssS'RMDL'
p1103
(dp1104
g100
I3
sg216
I1
sg56
I1
sg687
I2
sg282
I3
sg148
I1
sg294
I1
sg420
I1
sg425
I2
sg226
I1
sg482
I1
sg524
I1
sg549
I1
sg120
I1
sg219
I1
sg68
I2
sg322
I4
sg217
I1
ssS'AVDL'
p1105
(dp1106
g306
I1
sg194
I1
sg302
I2
sg21
I19
sg256
I1
sg35
I1
sg24
I13
sg257
I2
sg258
I1
sg262
I1
sg263
I1
sg133
I1
sg162
I1
sg163
I1
sg410
I1
sg168
I1
sg268
I1
sg271
I1
sg272
I1
sg179
I4
sg273
I1
sg453
I2
sg279
I1
ssS'RIAL'
p1107
(dp1108
g100
I-1
sg282
I-6
sg56
I-7
sg69
I-2
sg283
I-1
sg149
I-11
sg286
I-8
sg150
I-11
sg226
I-9
sg152
I-10
sg146
I-6
sg591
I-4
sg120
I-12
sg155
I-6
sg429
I-2
ssS'DD1'
p1109
(dp1110
g130
I-4
sg3
I-1
sg129
I-3
sg175
I-5
sg7
I-1
sg138
I-4
sg136
I-4
sg137
I-4
sg178
I-4
sg272
I-2
sg176
I-4
sg143
I-4
sg181
I-5
ssS'ASHR'
p1111
(dp1112
g16
I1
sg3
I3
sg17
I3
sg18
I1
sg345
I1
sg60
I2
sg302
I3
sg193
I10
sg21
I5
sg100
I2
sg103
I2
sg713
I1
sg236
I3
sg123
I3
sg29
I5
sg43
I1
sg44
I1
ss.