(dp0
S'MDR15'
p1
S'MOTOR_RIGHT'
p2
sS'MVL20'
p3
S'MOTOR_LEFT'
p4
sS'MDR17'
p5
g2
sS'MDL17'
p6
g4
sS'MDL16'
p7
g4
sS'MDR23'
p8
g2
sS'MDL15'
p9
g4
sS'MVL02'
p10
g4
sS'MDL14'
p11
g4
sS'MDL12'
p12
g4
sS'MDL11'
p13
g4
sS'MDL10'
p14
g4
sS'MDR11'
p15
g2
sS'MDL22'
p16
g4
sS'MDL23'
p17
g4
sS'MVR11'
p18
g2
sS'MVR10'
p19
g2
sS'MVL01'
p20
g4
sS'MVR24'
p21
g2
sS'MVR22'
p22
g2
sS'MDL24'
p23
g4
sS'MVR20'
p24
g2
sS'MVR21'
p25
g2
sS'MVR14'
p26
g2
sS'MVL11'
p27
g4
sS'MVL10'
p28
g4
sS'MVL13'
p29
g4
sS'MVL12'
p30
g4
sS'MVL15'
p31
g4
sS'MVL14'
p32
g4
sS'MVL17'
p33
g4
sS'MVL16'
p34
g4
sS'MVL19'
p35
g4
sS'MVL18'
p36
g4
sS'MDR19'
p37
g2
sS'MDR18'
p38
g2
sS'MVR13'
p39
g2
sS'MVR12'
p40
g2
sS'MDL20'
p41
g4
sS'MDL21'
p42
g4
sS'MVR17'
p43
g2
sS'MVR16'
p44
g2
sS'MVR15'
p45
g2
sS'MDR07'
p46
g2
sS'MVR19'
p47
g2
sS'MVR18'
p48
g2
sS'MDR06'
p49
g2
sS'MVL03'
p50
g4
sS'MDR04'
p51
g2
sS'MDR05'
p52
g2
sS'MDR02'
p53
g2
sS'MVL07'
p54
g4
sS'MVL04'
p55
g4
sS'MDR01'
p56
g2
sS'MVL06'
p57
g4
sS'MVL08'
p58
g4
sS'MVL09'
p59
g4
sS'MDR08'
p60
g2
sS'MDR03'
p61
g2
sS'MVL05'
p62
g4
sS'MVR23'
p63
g2
sS'MVR08'
p64
g2
sS'MVR09'
p65
g2
sS'MDL19'
p66
g4
sS'MDL18'
p67
g4
sS'MVR04'
p68
g2
sS'MVR05'
p69
g2
sS'MVR06'
p70
g2
sS'MVR07'
p71
g2
sS'MDL13'
p72
g4
sS'MVR01'
p73
g2
sS'MVR02'
p74
g2
sS'MVR03'
p75
g2
sS'MDR09'
p76
g2
sS'MDL08'
p77
g4
sS'MDL09'
p78
g4
sS'MDR14'
p79
g2
sS'MDL01'
p80
g4
sS'MDL02'
p81
g4
sS'MDL03'
p82
g4
sS'MDL04'
p83
g4
sS'MDL05'
p84
g4
sS'MDL06'
p85
g4
sS'MDL07'
p86
g4
sS'MDR16'
p87
g2
sS'MDR24'
p88
g2
sS'MVL21'
p89
g4
sS'MVL22'
p90
g4
sS'MVL23'
p91
g4
sS'MDR20'
p92
g2
sS'MDR21'
p93
g2
sS'MDR22'
p94
g2
sS'MDR10'
p95
g2
sS'MDR13'
p96
g2
sS'MDR12'
p97
g2
s.