(dp0
Fnan
I1
sS'FRMFemide_GJ'
p1
I1
sS'Acetylcholine_Tyramine'
p2
I1
sS'Octapamine_GJ'
p3
I1
sS'Octapamine'
p4
I1
sS'Serotonin_GJ'
p5
I1
sS'Dopamine_GJ'
p6
I1
sS'FRMFemide'
p7
I1
sS'Serotonin_Acetylcholine'
p8
I1
sS'GABA_GJ'
p9
I1
sS'Serotonin_Glutamate'
p10
I1
sS'Serotonin'
p11
I1
sS'FMRFamide_GJ'
p12
I1
sS'Serotonin_Acetylcholine_GJ'
p13
I1
sS'FMRFamide'
p14
I1
sS'Serotonin, Acetylcholine'
p15
I1
sS'Acetylcholine, Tyramine'
p16
I1
sS'Acetylcholine'
p17
I1
sS'Tyramine'
p18
I1
sS'Glutamate_GJ'
p19
I1
sS'Acetylcholine_Tyramine_GJ'
p20
I1
sS'Acetylcholine_GJ'
p21
I1
sS'Dopamine'
p22
I1
sS'Serotonin_Glutamate_GJ'
p23
I1
sS'Glutamate'
p24
I1
sS'GABA'
p25
I1
s.