(dp0
S'oxygen_sensor|putative_mechanosensory'
p1
S'ULTRA_SOUND'
p2
sS'putative_mechanosensory'
p3
g2
sS'nan'
p4
g2
sS'thermosensory'
p5
g2
sS'chemosensory|odorsensory|nociceptive'
p6
g2
sS'mechanosensory'
p7
g2
sS'chemosensory'
p8
g2
sS'oxygen_sensor'
p9
g2
sS'osmosensory|mechanosensory|odorsensory|nociceptive'
p10
g2
sS'odorsensory'
p11
g2
s.