(dp0
S'interneuron'
p1
S'NO_SIGNAL'
p2
sS'oxygen_sensor|putative_mechanosensory'
p3
g2
sS'Neuron|ciliated-ending-in-head|no-supporting-cells|associated-with-ILso'
p4
g2
sS'neuron|presynaptic-in-ring|ending-in-head'
p5
g2
sS'putative_mechanosensory'
p6
g2
sS'osmosensory|mechanosensory|odorsensory|nociceptive|gpg-nose'
p7
S'ULTRA_SOUND'
p8
sS'chemosensory|inter-labial-neuron'
p9
g2
sS'thermosensory'
p10
g2
sS'mechanosensory'
p11
g2
sS'chemosensory'
p12
g2
sS'chemosensory|gpg-food'
p13
S'WIFI_SIGNAL'
p14
sS'mechanosensory|inter-labial-neuron'
p15
g2
sS'Ventral-cord-interneuron|few-synapses'
p16
g2
sS'ring-motor-neuron'
p17
g2
sS'oxygen_sensor'
p18
g2
sS'chemosensory|odorsensory|nociceptive'
p19
g2
sS'odorsensory'
p20
g2
sS'mechanosensory|gpg-nose'
p21
g8
s.